; Function Attrs: mustprogress uwtable
define internal fastcc void @_ZN24json11_internal_lightgbm12_GLOBAL__N_110JsonParser4failEONSt7__cxx1112basic_stringIcSt11char_traitsIcESaIcEEE(ptr dead_on_unwind noalias nocapture writable writeonly align 8 %0, ptr nocapture noundef nonnull align 8 dereferenceable(40) %1, ptr noundef nonnull align 8 dereferenceable(32) %2) unnamed_addr #1 align 2 personality ptr @__gxx_personality_v0 {
  %4 = alloca %"class.json11_internal_lightgbm::Json", align 8
  call void @_ZN24json11_internal_lightgbm4JsonC1Ev(ptr noundef nonnull align 8 dereferenceable(16) %4) #22
  call void @llvm.experimental.noalias.scope.decl(metadata !65)
  %5 = getelementptr inbounds i8, ptr %1, i64 32
  %6 = load i8, ptr %5, align 8, !noalias !65
  %7 = trunc i8 %6 to i1
  br i1 %7, label %12, label %8

8:                                                ; preds = %3
  %9 = getelementptr inbounds i8, ptr %1, i64 24
  %10 = load ptr, ptr %9, align 8, !noalias !65
  %11 = call noundef nonnull align 8 dereferenceable(32) ptr @_ZNSt7__cxx1112basic_stringIcSt11char_traitsIcESaIcEEaSEOS4_(ptr noundef nonnull align 8 dereferenceable(32) %10, ptr noundef nonnull align 8 dereferenceable(32) %2) #22, !noalias !65
  br label %12

12:                                               ; preds = %8, %3
  store i8 1, ptr %5, align 8, !noalias !65
  %13 = load ptr, ptr %4, align 8, !noalias !65
  store ptr %13, ptr %0, align 8, !alias.scope !65
  %14 = getelementptr inbounds i8, ptr %0, i64 8
  %15 = getelementptr inbounds i8, ptr %4, i64 8
  %16 = load ptr, ptr %15, align 8
  store ptr %16, ptr %14, align 8, !alias.scope !65
  %.not.i.i.i.i.i = icmp eq ptr %16, null
  br i1 %.not.i.i.i.i.i, label %_ZN24json11_internal_lightgbm4JsonD2Ev.exit, label %17

17:                                               ; preds = %12
  %18 = getelementptr inbounds i8, ptr %16, i64 8
  %19 = load i8, ptr @__libc_single_threaded, align 1, !noalias !65
  %.not.i.i.i.i.i.i = icmp eq i8 %19, 0
  br i1 %.not.i.i.i.i.i.i, label %23, label %20

20:                                               ; preds = %17
  %21 = load i32, ptr %18, align 4, !noalias !65
  %22 = add nsw i32 %21, 1
  store i32 %22, ptr %18, align 4, !noalias !65
  br label %_ZN24json11_internal_lightgbm12_GLOBAL__N_110JsonParser4failINS_4JsonEEET_ONSt7__cxx1112basic_stringIcSt11char_traitsIcESaIcEEES4_.exit

23:                                               ; preds = %17
  %24 = atomicrmw volatile add ptr %18, i32 1 acq_rel, align 4, !noalias !65
  br label %_ZN24json11_internal_lightgbm12_GLOBAL__N_110JsonParser4failINS_4JsonEEET_ONSt7__cxx1112basic_stringIcSt11char_traitsIcESaIcEEES4_.exit

_ZN24json11_internal_lightgbm12_GLOBAL__N_110JsonParser4failINS_4JsonEEET_ONSt7__cxx1112basic_stringIcSt11char_traitsIcESaIcEEES4_.exit: ; preds = %20, %23
  %.pr = load ptr, ptr %15, align 8
  %.not.i.i.i.i = icmp eq ptr %.pr, null
  br i1 %.not.i.i.i.i, label %_ZN24json11_internal_lightgbm4JsonD2Ev.exit, label %25

25:                                               ; preds = %_ZN24json11_internal_lightgbm12_GLOBAL__N_110JsonParser4failINS_4JsonEEET_ONSt7__cxx1112basic_stringIcSt11char_traitsIcESaIcEEES4_.exit
  %26 = getelementptr inbounds i8, ptr %.pr, i64 8
  %27 = load atomic i64, ptr %26 acquire, align 8
  %28 = icmp eq i64 %27, 4294967297
  %29 = trunc i64 %27 to i32
  br i1 %28, label %30, label %35

30:                                               ; preds = %25
  store i32 0, ptr %26, align 8
  %31 = getelementptr inbounds i8, ptr %.pr, i64 12
  store i32 0, ptr %31, align 4
  %32 = load ptr, ptr %.pr, align 8
  %33 = getelementptr inbounds i8, ptr %32, i64 16
  %34 = load ptr, ptr %33, align 8
  call void %34(ptr noundef nonnull align 8 dereferenceable(16) %.pr) #22
  br label %_ZNSt16_Sp_counted_baseILN9__gnu_cxx12_Lock_policyE2EE24_M_release_last_use_coldEv.exit.sink.split.i.i.i.i.i

35:                                               ; preds = %25
  %36 = load i8, ptr @__libc_single_threaded, align 1
  %.not.i.i.i.i.i2 = icmp eq i8 %36, 0
  br i1 %.not.i.i.i.i.i2, label %39, label %37

37:                                               ; preds = %35
  %38 = add nsw i32 %29, -1
  store i32 %38, ptr %26, align 4
  br label %41

39:                                               ; preds = %35
  %40 = atomicrmw volatile add ptr %26, i32 -1 acq_rel, align 4
  br label %41

41:                                               ; preds = %39, %37
  %.0.i.i.i.i.i = phi i32 [ %29, %37 ], [ %40, %39 ]
  %42 = icmp eq i32 %.0.i.i.i.i.i, 1
  br i1 %42, label %43, label %_ZN24json11_internal_lightgbm4JsonD2Ev.exit

43:                                               ; preds = %41
  %44 = load ptr, ptr %.pr, align 8
  %45 = getelementptr inbounds i8, ptr %44, i64 16
  %46 = load ptr, ptr %45, align 8
  call void %46(ptr noundef nonnull align 8 dereferenceable(16) %.pr) #22
  %47 = getelementptr inbounds i8, ptr %.pr, i64 12
  %48 = load i8, ptr @__libc_single_threaded, align 1
  %.not.i.i.i.i.i.i.i = icmp eq i8 %48, 0
  br i1 %.not.i.i.i.i.i.i.i, label %52, label %49

49:                                               ; preds = %43
  %50 = load i32, ptr %47, align 4
  %51 = add nsw i32 %50, -1
  store i32 %51, ptr %47, align 4
  br label %54

52:                                               ; preds = %43
  %53 = atomicrmw volatile add ptr %47, i32 -1 acq_rel, align 4
  br label %54

54:                                               ; preds = %52, %49
  %.0.i.i.i.i.i.i.i = phi i32 [ %50, %49 ], [ %53, %52 ]
  %55 = icmp eq i32 %.0.i.i.i.i.i.i.i, 1
  br i1 %55, label %_ZNSt16_Sp_counted_baseILN9__gnu_cxx12_Lock_policyE2EE24_M_release_last_use_coldEv.exit.sink.split.i.i.i.i.i, label %_ZN24json11_internal_lightgbm4JsonD2Ev.exit

_ZNSt16_Sp_counted_baseILN9__gnu_cxx12_Lock_policyE2EE24_M_release_last_use_coldEv.exit.sink.split.i.i.i.i.i: ; preds = %54, %30
  %56 = load ptr, ptr %.pr, align 8
  %57 = getelementptr inbounds i8, ptr %56, i64 24
  %58 = load ptr, ptr %57, align 8
  call void %58(ptr noundef nonnull align 8 dereferenceable(16) %.pr) #22
  br label %_ZN24json11_internal_lightgbm4JsonD2Ev.exit

_ZN24json11_internal_lightgbm4JsonD2Ev.exit:      ; preds = %12, %_ZN24json11_internal_lightgbm12_GLOBAL__N_110JsonParser4failINS_4JsonEEET_ONSt7__cxx1112basic_stringIcSt11char_traitsIcESaIcEEES4_.exit, %41, %54, %_ZNSt16_Sp_counted_baseILN9__gnu_cxx12_Lock_policyE2EE24_M_release_last_use_coldEv.exit.sink.split.i.i.i.i.i
  ret void
}